; Function Attrs: nounwind uwtable
define internal fastcc void @IDASensNewyyp(ptr noundef nonnull readonly captures(none) %0, double noundef %1) unnamed_addr #0 {
  %3 = getelementptr inbounds nuw i8, ptr %0, i64 1072
  %4 = load i32, ptr %3, align 8, !tbaa !18
  %5 = icmp eq i32 %4, 1
  %6 = getelementptr inbounds nuw i8, ptr %0, i64 140
  %7 = load i32, ptr %6, align 4, !tbaa !29
  %8 = icmp sgt i32 %7, 0
  br i1 %5, label %.preheader, label %.preheader34

.preheader34:                                     ; preds = %2
  br i1 %8, label %.lr.ph, label %.loopexit

.lr.ph:                                           ; preds = %.preheader34
  %9 = getelementptr inbounds nuw i8, ptr %0, i64 928
  %10 = fneg double %1
  %11 = getelementptr inbounds nuw i8, ptr %0, i64 880
  %12 = getelementptr inbounds nuw i8, ptr %0, i64 944
  br label %52

.preheader:                                       ; preds = %2
  br i1 %8, label %.lr.ph38, label %.loopexit

.lr.ph38:                                         ; preds = %.preheader
  %13 = getelementptr inbounds nuw i8, ptr %0, i64 632
  %14 = getelementptr inbounds nuw i8, ptr %0, i64 880
  %15 = getelementptr inbounds nuw i8, ptr %0, i64 712
  %16 = getelementptr inbounds nuw i8, ptr %0, i64 936
  %17 = getelementptr inbounds nuw i8, ptr %0, i64 1200
  %18 = getelementptr inbounds nuw i8, ptr %0, i64 952
  %19 = getelementptr inbounds nuw i8, ptr %0, i64 928
  %20 = fneg double %1
  %21 = getelementptr inbounds nuw i8, ptr %0, i64 944
  br label %22

22:                                               ; preds = %.lr.ph38, %22
  %indvars.iv41 = phi i64 [ 0, %.lr.ph38 ], [ %indvars.iv.next42, %22 ]
  %23 = load ptr, ptr %13, align 8, !tbaa !19
  %24 = load ptr, ptr %14, align 8, !tbaa !59
  %25 = getelementptr inbounds nuw ptr, ptr %24, i64 %indvars.iv41
  %26 = load ptr, ptr %25, align 8, !tbaa !28
  %27 = load ptr, ptr %15, align 8, !tbaa !75
  tail call void @N_VProd(ptr noundef %23, ptr noundef %26, ptr noundef %27) #3
  %28 = load ptr, ptr %16, align 8, !tbaa !31
  %29 = getelementptr inbounds nuw ptr, ptr %28, i64 %indvars.iv41
  %30 = load ptr, ptr %29, align 8, !tbaa !28
  %31 = load double, ptr %17, align 8, !tbaa !51
  %32 = fneg double %31
  %33 = fmul double %1, %32
  %34 = load ptr, ptr %15, align 8, !tbaa !75
  %35 = load ptr, ptr %18, align 8, !tbaa !39
  %36 = getelementptr inbounds nuw ptr, ptr %35, i64 %indvars.iv41
  %37 = load ptr, ptr %36, align 8, !tbaa !28
  tail call void @N_VLinearSum(double noundef 1.000000e+00, ptr noundef %30, double noundef %33, ptr noundef %34, ptr noundef %37) #3
  %38 = load ptr, ptr %14, align 8, !tbaa !59
  %39 = getelementptr inbounds nuw ptr, ptr %38, i64 %indvars.iv41
  %40 = load ptr, ptr %39, align 8, !tbaa !28
  %41 = load ptr, ptr %15, align 8, !tbaa !75
  tail call void @N_VLinearSum(double noundef 1.000000e+00, ptr noundef %40, double noundef -1.000000e+00, ptr noundef %41, ptr noundef %41) #3
  %42 = load ptr, ptr %19, align 8, !tbaa !30
  %43 = getelementptr inbounds nuw ptr, ptr %42, i64 %indvars.iv41
  %44 = load ptr, ptr %43, align 8, !tbaa !28
  %45 = load ptr, ptr %15, align 8, !tbaa !75
  %46 = load ptr, ptr %21, align 8, !tbaa !37
  %47 = getelementptr inbounds nuw ptr, ptr %46, i64 %indvars.iv41
  %48 = load ptr, ptr %47, align 8, !tbaa !28
  tail call void @N_VLinearSum(double noundef 1.000000e+00, ptr noundef %44, double noundef %20, ptr noundef %45, ptr noundef %48) #3
  %indvars.iv.next42 = add nuw nsw i64 %indvars.iv41, 1
  %49 = load i32, ptr %6, align 4, !tbaa !29
  %50 = sext i32 %49 to i64
  %51 = icmp slt i64 %indvars.iv.next42, %50
  br i1 %51, label %22, label %.loopexit, !llvm.loop !114

52:                                               ; preds = %.lr.ph, %52
  %indvars.iv = phi i64 [ 0, %.lr.ph ], [ %indvars.iv.next, %52 ]
  %53 = load ptr, ptr %9, align 8, !tbaa !30
  %54 = getelementptr inbounds nuw ptr, ptr %53, i64 %indvars.iv
  %55 = load ptr, ptr %54, align 8, !tbaa !28
  %56 = load ptr, ptr %11, align 8, !tbaa !59
  %57 = getelementptr inbounds nuw ptr, ptr %56, i64 %indvars.iv
  %58 = load ptr, ptr %57, align 8, !tbaa !28
  %59 = load ptr, ptr %12, align 8, !tbaa !37
  %60 = getelementptr inbounds nuw ptr, ptr %59, i64 %indvars.iv
  %61 = load ptr, ptr %60, align 8, !tbaa !28
  tail call void @N_VLinearSum(double noundef 1.000000e+00, ptr noundef %55, double noundef %10, ptr noundef %58, ptr noundef %61) #3
  %indvars.iv.next = add nuw nsw i64 %indvars.iv, 1
  %62 = load i32, ptr %6, align 4, !tbaa !29
  %63 = sext i32 %62 to i64
  %64 = icmp slt i64 %indvars.iv.next, %63
  br i1 %64, label %52, label %.loopexit, !llvm.loop !115

.loopexit:                                        ; preds = %52, %22, %.preheader34, %.preheader
  ret void
}